target datalayout = "e-m:e-p270:32:32-p271:32:32-p272:64:64-i64:64-i128:128-f80:128-n8:16:32:64-S128"
target triple = "x86_64-pc-linux-gnu"

%class.CapturePreferencesFrame = type { %class.QFrame, ptr, ptr, ptr, ptr, ptr, ptr, ptr, ptr, ptr }
%class.QFrame = type { %class.QWidget }
%class.QWidget = type { %class.QObject, %class.QPaintDevice.base, ptr }
%class.QObject = type { ptr, %class.QScopedPointer }
%class.QScopedPointer = type { ptr }
%class.QPaintDevice.base = type <{ ptr, i16 }>
%class.Ui_CapturePreferencesFrame = type { ptr, ptr, ptr, ptr, ptr, ptr, ptr, ptr, ptr, ptr, ptr, ptr, ptr, ptr, ptr, ptr }

; Function Attrs: mustprogress null_pointer_is_valid sspstrong uwtable
define void @_ZN23CapturePreferencesFrame13updateWidgetsEv(ptr noundef align 8 dereferenceable_or_null(112) %0) #0 align 2 {
  %2 = alloca ptr, align 8
  store ptr %0, ptr %2, align 8
  %3 = load ptr, ptr %2, align 8
  %4 = getelementptr inbounds nuw %class.CapturePreferencesFrame, ptr %3, i32 0, i32 1
  %5 = load ptr, ptr %4, align 8
  %6 = getelementptr inbounds nuw %class.Ui_CapturePreferencesFrame, ptr %5, i32 0, i32 13
  %7 = load ptr, ptr %6, align 8
  %8 = getelementptr inbounds nuw %class.CapturePreferencesFrame, ptr %3, i32 0, i32 8
  %9 = load ptr, ptr %8, align 8
  %10 = call zeroext i1 @prefs_get_bool_value(ptr noundef %9, i32 noundef 1)
  call void @_ZN15QAbstractButton10setCheckedEb(ptr noundef align 8 dereferenceable_or_null(40) %7, i1 noundef zeroext %10)
  %11 = getelementptr inbounds nuw %class.CapturePreferencesFrame, ptr %3, i32 0, i32 1
  %12 = load ptr, ptr %11, align 8
  %13 = getelementptr inbounds nuw %class.Ui_CapturePreferencesFrame, ptr %12, i32 0, i32 14
  %14 = load ptr, ptr %13, align 8
  %15 = getelementptr inbounds nuw %class.CapturePreferencesFrame, ptr %3, i32 0, i32 9
  %16 = load ptr, ptr %15, align 8
  %17 = call zeroext i1 @prefs_get_bool_value(ptr noundef %16, i32 noundef 1)
  call void @_ZN15QAbstractButton10setCheckedEb(ptr noundef align 8 dereferenceable_or_null(40) %14, i1 noundef zeroext %17)
  ret void
}

; Function Attrs: mustprogress null_pointer_is_valid sspstrong uwtable
define void @_ZN23CapturePreferencesFrame9showEventEP10QShowEvent(ptr noundef align 8 dereferenceable_or_null(112) %0, ptr noundef %1) unnamed_addr #0 align 2 {
  %3 = alloca ptr, align 8
  %4 = alloca ptr, align 8
  store ptr %0, ptr %3, align 8
  store ptr %1, ptr %4, align 8
  %5 = load ptr, ptr %3, align 8
  call void @_ZN23CapturePreferencesFrame13updateWidgetsEv(ptr noundef align 8 dereferenceable_or_null(112) %5)
  ret void
}