; Function Attrs: mustprogress null_pointer_is_valid sspstrong uwtable
define void @_ZN23CapturePreferencesFrame9showEventEP10QShowEvent(ptr noundef readonly align 8 captures(none) dereferenceable_or_null(112) %0, ptr readnone captures(none) %1) unnamed_addr #0 align 2 {
  %3 = getelementptr inbounds nuw i8, ptr %0, i64 40
  %4 = load ptr, ptr %3, align 8
  %5 = getelementptr inbounds nuw i8, ptr %4, i64 104
  %6 = load ptr, ptr %5, align 8
  %7 = getelementptr inbounds nuw i8, ptr %0, i64 96
  %8 = load ptr, ptr %7, align 8
  %9 = tail call zeroext i1 @prefs_get_bool_value(ptr noundef %8, i32 noundef 1)
  tail call void @_ZN15QAbstractButton10setCheckedEb(ptr noundef align 8 dereferenceable_or_null(40) %6, i1 noundef zeroext %9)
  %10 = load ptr, ptr %3, align 8
  %11 = getelementptr inbounds nuw i8, ptr %10, i64 112
  %12 = load ptr, ptr %11, align 8
  %13 = getelementptr inbounds nuw i8, ptr %0, i64 104
  %14 = load ptr, ptr %13, align 8
  %15 = tail call zeroext i1 @prefs_get_bool_value(ptr noundef %14, i32 noundef 1)
  tail call void @_ZN15QAbstractButton10setCheckedEb(ptr noundef align 8 dereferenceable_or_null(40) %12, i1 noundef zeroext %15)
  ret void
}